; Function Attrs: inlinehint mustprogress uwtable
define internal void @"_ZN12_GLOBAL__N_13$_28__invokeERKN5vcpkg10VcpkgPathsE"(ptr nonnull readnone align 8 captures(none) %0) #8 align 2 personality ptr @__gxx_personality_v0 {
  %2 = alloca %"struct.vcpkg::LocalizedString", align 8
  call void @llvm.lifetime.start.p0(i64 32, ptr nonnull %2) #23
  call void @_ZN5vcpkg31format_help_topic_asset_cachingEv(ptr dead_on_unwind nonnull writable sret(%"struct.vcpkg::LocalizedString") align 8 %2)
  %3 = call { ptr, i64 } @_ZNK5vcpkg15LocalizedStringcvNS_10StringViewEEv(ptr noundef nonnull align 8 dereferenceable(32) %2) #23
  %4 = extractvalue { ptr, i64 } %3, 0
  %5 = extractvalue { ptr, i64 } %3, 1
  invoke void @_ZN5vcpkg3msg22write_unlocalized_textENS_5ColorENS_10StringViewE(i8 noundef signext 0, ptr %4, i64 %5)
          to label %.noexc.i unwind label %14

.noexc.i:                                         ; preds = %1
  invoke void @_ZN5vcpkg3msg22write_unlocalized_textENS_5ColorENS_10StringViewE(i8 noundef signext 0, ptr nonnull @.str.17, i64 1)
          to label %_ZN5vcpkg3msg7printlnERKNS_15LocalizedStringE.exit.i unwind label %14

_ZN5vcpkg3msg7printlnERKNS_15LocalizedStringE.exit.i: ; preds = %.noexc.i
  %6 = load ptr, ptr %2, align 8, !tbaa !56
  %7 = getelementptr inbounds nuw i8, ptr %2, i64 16
  %8 = icmp eq ptr %6, %7
  br i1 %8, label %_ZNKSt7__cxx1112basic_stringIcSt11char_traitsIcESaIcEE11_M_is_localEv.exit.thread.i.i.i.i, label %_ZNKSt7__cxx1112basic_stringIcSt11char_traitsIcESaIcEE11_M_is_localEv.exit.i.i.i.i

_ZNKSt7__cxx1112basic_stringIcSt11char_traitsIcESaIcEE11_M_is_localEv.exit.thread.i.i.i.i: ; preds = %_ZN5vcpkg3msg7printlnERKNS_15LocalizedStringE.exit.i
  %9 = getelementptr inbounds nuw i8, ptr %2, i64 8
  %10 = load i64, ptr %9, align 8, !tbaa !59
  %11 = icmp ult i64 %10, 16
  call void @llvm.assume(i1 %11)
  br label %"_ZNK12_GLOBAL__N_13$_2clERKN5vcpkg10VcpkgPathsE.exit"

_ZNKSt7__cxx1112basic_stringIcSt11char_traitsIcESaIcEE11_M_is_localEv.exit.i.i.i.i: ; preds = %_ZN5vcpkg3msg7printlnERKNS_15LocalizedStringE.exit.i
  %12 = load i64, ptr %7, align 8, !tbaa !60
  %13 = add i64 %12, 1
  call void @_ZdlPvm(ptr noundef %6, i64 noundef %13) #26
  br label %"_ZNK12_GLOBAL__N_13$_2clERKN5vcpkg10VcpkgPathsE.exit"

14:                                               ; preds = %.noexc.i, %1
  %15 = landingpad { ptr, i32 }
          cleanup
  %16 = load ptr, ptr %2, align 8, !tbaa !56
  %17 = getelementptr inbounds nuw i8, ptr %2, i64 16
  %18 = icmp eq ptr %16, %17
  br i1 %18, label %_ZNKSt7__cxx1112basic_stringIcSt11char_traitsIcESaIcEE11_M_is_localEv.exit.thread.i.i.i3.i, label %_ZNKSt7__cxx1112basic_stringIcSt11char_traitsIcESaIcEE11_M_is_localEv.exit.i.i.i2.i

_ZNKSt7__cxx1112basic_stringIcSt11char_traitsIcESaIcEE11_M_is_localEv.exit.thread.i.i.i3.i: ; preds = %14
  %19 = getelementptr inbounds nuw i8, ptr %2, i64 8
  %20 = load i64, ptr %19, align 8, !tbaa !59
  %21 = icmp ult i64 %20, 16
  call void @llvm.assume(i1 %21)
  br label %_ZN5vcpkg15LocalizedStringD2Ev.exit4.i

_ZNKSt7__cxx1112basic_stringIcSt11char_traitsIcESaIcEE11_M_is_localEv.exit.i.i.i2.i: ; preds = %14
  %22 = load i64, ptr %17, align 8, !tbaa !60
  %23 = add i64 %22, 1
  call void @_ZdlPvm(ptr noundef %16, i64 noundef %23) #26
  br label %_ZN5vcpkg15LocalizedStringD2Ev.exit4.i

_ZN5vcpkg15LocalizedStringD2Ev.exit4.i:           ; preds = %_ZNKSt7__cxx1112basic_stringIcSt11char_traitsIcESaIcEE11_M_is_localEv.exit.i.i.i2.i, %_ZNKSt7__cxx1112basic_stringIcSt11char_traitsIcESaIcEE11_M_is_localEv.exit.thread.i.i.i3.i
  call void @llvm.lifetime.end.p0(i64 32, ptr nonnull %2) #23
  resume { ptr, i32 } %15

"_ZNK12_GLOBAL__N_13$_2clERKN5vcpkg10VcpkgPathsE.exit": ; preds = %_ZNKSt7__cxx1112basic_stringIcSt11char_traitsIcESaIcEE11_M_is_localEv.exit.thread.i.i.i.i, %_ZNKSt7__cxx1112basic_stringIcSt11char_traitsIcESaIcEE11_M_is_localEv.exit.i.i.i.i
  call void @llvm.lifetime.end.p0(i64 32, ptr nonnull %2) #23
  ret void
}